target datalayout = "e-m:e-p270:32:32-p271:32:32-p272:64:64-i64:64-i128:128-f80:128-n8:16:32:64-S128"
target triple = "x86_64-pc-linux-gnu"

%struct.PayloadContext = type { i32, i32, i32, i32 }
%struct.AVFormatContext = type { ptr, ptr, ptr, ptr, ptr, i32, i32, ptr, i32, ptr, i32, ptr, ptr, i64, i64, i64, i32, i32, i32, i64, i64, ptr, i32, i32, ptr, i32, i32, i32, i32, ptr, i64, i32, i32, %struct.AVIOInterruptCB, i32, i32, i32, i32, i64, i32, i32, i32, i32, i32, i32, i32, i32, i32, i32, i32, i32, i64, i32, i32, i32, i32, i32, ptr, ptr, ptr, ptr, i32, ptr, ptr, ptr, ptr, i32, ptr, ptr, i64, ptr, ptr, ptr, i64 }
%struct.AVIOInterruptCB = type { ptr, ptr }

@.str.2 = private unnamed_addr constant [6 x i8] c"fmtp:\00", align 1
@.str.3 = private unnamed_addr constant [36 x i8] c"Unsupported RTP/AMR configuration!\0A\00", align 1

; Function Attrs: nounwind uwtable
define internal i32 @amr_parse_sdp_line(ptr noundef %0, i32 noundef %1, ptr noundef %2, ptr noundef %3) #1 {
  %5 = alloca i32, align 4
  %6 = alloca ptr, align 8
  %7 = alloca i32, align 4
  %8 = alloca ptr, align 8
  %9 = alloca ptr, align 8
  %10 = alloca ptr, align 8
  %11 = alloca i32, align 4
  %12 = alloca i32, align 4
  store ptr %0, ptr %6, align 8, !tbaa !4
  store i32 %1, ptr %7, align 4, !tbaa !9
  store ptr %2, ptr %8, align 8, !tbaa !11
  store ptr %3, ptr %9, align 8, !tbaa !15
  call void @llvm.lifetime.start.p0(i64 8, ptr %10) #9
  call void @llvm.lifetime.start.p0(i64 4, ptr %11) #9
  %13 = load i32, ptr %7, align 4, !tbaa !9
  %14 = icmp slt i32 %13, 0
  br i1 %14, label %15, label %16

15:                                               ; preds = %4
  store i32 0, ptr %5, align 4
  store i32 1, ptr %12, align 4
  br label %56

16:                                               ; preds = %4
  %17 = load ptr, ptr %9, align 8, !tbaa !15
  %18 = call i32 @av_strstart(ptr noundef %17, ptr noundef @.str.2, ptr noundef %10)
  %19 = icmp ne i32 %18, 0
  br i1 %19, label %20, label %55

20:                                               ; preds = %16
  %21 = load ptr, ptr %6, align 8, !tbaa !4
  %22 = load ptr, ptr %6, align 8, !tbaa !4
  %23 = getelementptr inbounds nuw %struct.AVFormatContext, ptr %22, i32 0, i32 7
  %24 = load ptr, ptr %23, align 8, !tbaa !17
  %25 = load i32, ptr %7, align 4, !tbaa !9
  %26 = sext i32 %25 to i64
  %27 = getelementptr inbounds ptr, ptr %24, i64 %26
  %28 = load ptr, ptr %27, align 8, !tbaa !32
  %29 = load ptr, ptr %8, align 8, !tbaa !11
  %30 = load ptr, ptr %10, align 8, !tbaa !15
  %31 = call i32 @ff_parse_fmtp(ptr noundef %21, ptr noundef %28, ptr noundef %29, ptr noundef %30, ptr noundef @amr_parse_fmtp)
  store i32 %31, ptr %11, align 4, !tbaa !9
  %32 = load ptr, ptr %8, align 8, !tbaa !11
  %33 = getelementptr inbounds nuw %struct.PayloadContext, ptr %32, i32 0, i32 0
  %34 = load i32, ptr %33, align 4, !tbaa !34
  %35 = icmp ne i32 %34, 0
  br i1 %35, label %36, label %51

36:                                               ; preds = %20
  %37 = load ptr, ptr %8, align 8, !tbaa !11
  %38 = getelementptr inbounds nuw %struct.PayloadContext, ptr %37, i32 0, i32 1
  %39 = load i32, ptr %38, align 4, !tbaa !35
  %40 = icmp ne i32 %39, 0
  br i1 %40, label %51, label %41

41:                                               ; preds = %36
  %42 = load ptr, ptr %8, align 8, !tbaa !11
  %43 = getelementptr inbounds nuw %struct.PayloadContext, ptr %42, i32 0, i32 2
  %44 = load i32, ptr %43, align 4, !tbaa !36
  %45 = icmp ne i32 %44, 0
  br i1 %45, label %51, label %46

46:                                               ; preds = %41
  %47 = load ptr, ptr %8, align 8, !tbaa !11
  %48 = getelementptr inbounds nuw %struct.PayloadContext, ptr %47, i32 0, i32 3
  %49 = load i32, ptr %48, align 4, !tbaa !13
  %50 = icmp ne i32 %49, 1
  br i1 %50, label %51, label %53

51:                                               ; preds = %46, %41, %36, %20
  %52 = load ptr, ptr %6, align 8, !tbaa !4
  call void (ptr, i32, ptr, ...) @av_log(ptr noundef %52, i32 noundef 16, ptr noundef @.str.3)
  store i32 -1, ptr %5, align 4
  store i32 1, ptr %12, align 4
  br label %56

53:                                               ; preds = %46
  %54 = load i32, ptr %11, align 4, !tbaa !9
  store i32 %54, ptr %5, align 4
  store i32 1, ptr %12, align 4
  br label %56

55:                                               ; preds = %16
  store i32 0, ptr %5, align 4
  store i32 1, ptr %12, align 4
  br label %56

56:                                               ; preds = %55, %53, %51, %15
  call void @llvm.lifetime.end.p0(i64 4, ptr %11) #9
  call void @llvm.lifetime.end.p0(i64 8, ptr %10) #9
  %57 = load i32, ptr %5, align 4
  ret i32 %57
}