; Function Attrs: nounwind uwtable
define internal i32 @amr_parse_sdp_line(ptr noundef %0, i32 noundef %1, ptr noundef %2, ptr noundef %3) #1 {
  %5 = alloca ptr, align 8
  call void @llvm.lifetime.start.p0(i64 8, ptr nonnull %5) #9
  %6 = icmp slt i32 %1, 0
  br i1 %6, label %28, label %7

7:                                                ; preds = %4
  %8 = call i32 @av_strstart(ptr noundef %3, ptr noundef nonnull @.str.2, ptr noundef nonnull %5) #9
  %.not = icmp eq i32 %8, 0
  br i1 %.not, label %28, label %9

9:                                                ; preds = %7
  %10 = getelementptr inbounds nuw i8, ptr %0, i64 48
  %11 = load ptr, ptr %10, align 8, !tbaa !9
  %12 = zext nneg i32 %1 to i64
  %13 = getelementptr inbounds nuw ptr, ptr %11, i64 %12
  %14 = load ptr, ptr %13, align 8, !tbaa !26
  %15 = load ptr, ptr %5, align 8, !tbaa !28
  %16 = call i32 @ff_parse_fmtp(ptr noundef %0, ptr noundef %14, ptr noundef %2, ptr noundef %15, ptr noundef nonnull @amr_parse_fmtp) #9
  %17 = load i32, ptr %2, align 4, !tbaa !29
  %.not13 = icmp eq i32 %17, 0
  br i1 %.not13, label %27, label %18

18:                                               ; preds = %9
  %19 = getelementptr inbounds nuw i8, ptr %2, i64 4
  %20 = load i32, ptr %19, align 4, !tbaa !30
  %.not14 = icmp eq i32 %20, 0
  br i1 %.not14, label %21, label %27

21:                                               ; preds = %18
  %22 = getelementptr inbounds nuw i8, ptr %2, i64 8
  %23 = load i32, ptr %22, align 4, !tbaa !31
  %.not15 = icmp eq i32 %23, 0
  br i1 %.not15, label %24, label %27

24:                                               ; preds = %21
  %25 = getelementptr inbounds nuw i8, ptr %2, i64 12
  %26 = load i32, ptr %25, align 4, !tbaa !4
  %.not16 = icmp eq i32 %26, 1
  br i1 %.not16, label %28, label %27

27:                                               ; preds = %24, %21, %18, %9
  call void (ptr, i32, ptr, ...) @av_log(ptr noundef nonnull %0, i32 noundef 16, ptr noundef nonnull @.str.3) #9
  br label %28

28:                                               ; preds = %7, %24, %4, %27
  %.0 = phi i32 [ -1, %27 ], [ 0, %4 ], [ %16, %24 ], [ 0, %7 ]
  call void @llvm.lifetime.end.p0(i64 8, ptr nonnull %5) #9
  ret i32 %.0
}